; ModuleID = 'source-C-CXX/38/1299.c'
source_filename = "source-C-CXX/38/1299.c"
target datalayout = "e-m:e-p270:32:32-p271:32:32-p272:64:64-i64:64-f80:128-n8:16:32:64-S128"
target triple = "x86_64-pc-linux-gnu"

@.str = private unnamed_addr constant [3 x i8] c"%d\00", align 1
@.str.1 = private unnamed_addr constant [18 x i8] c"%s %d %d %c %c %d\00", align 1
@.str.2 = private unnamed_addr constant [9 x i8] c"%s\0A%d\0A%d\00", align 1

; Function Attrs: mustprogress nofree norecurse nosync nounwind readnone sspstrong uwtable willreturn
define dso_local i32 @cpu(i32 %0, i32 %1, i8 signext %2, i8 signext %3, i32 %4) local_unnamed_addr #0 {
  %6 = icmp sgt i32 %0, 80
  %7 = icmp sgt i32 %4, 0
  %8 = select i1 %6, i1 %7, i1 false
  %9 = select i1 %8, i32 8000, i32 0
  %10 = icmp sgt i32 %0, 85
  %11 = icmp sgt i32 %1, 80
  %12 = select i1 %10, i1 %11, i1 false
  %13 = add nuw nsw i32 %9, 4000
  %14 = select i1 %12, i32 %13, i32 %9
  %15 = icmp sgt i32 %0, 90
  %16 = add nuw nsw i32 %14, 2000
  %17 = select i1 %15, i32 %16, i32 %14
  %18 = icmp eq i8 %3, 89
  %19 = select i1 %10, i1 %18, i1 false
  %20 = add nuw nsw i32 %17, 1000
  %21 = select i1 %19, i32 %20, i32 %17
  %22 = icmp eq i8 %2, 89
  %23 = select i1 %11, i1 %22, i1 false
  %24 = add nuw nsw i32 %21, 850
  %25 = select i1 %23, i32 %24, i32 %21
  ret i32 %25
}

; Function Attrs: argmemonly mustprogress nofree nosync nounwind willreturn
declare void @llvm.lifetime.start.p0i8(i64 immarg, i8* nocapture) #1

; Function Attrs: argmemonly mustprogress nofree nosync nounwind willreturn
declare void @llvm.lifetime.end.p0i8(i64 immarg, i8* nocapture) #1

; Function Attrs: nofree nounwind sspstrong uwtable
define dso_local i32 @main() local_unnamed_addr #2 {
  %1 = alloca i32, align 4
  %2 = alloca [21 x i8], align 16
  %3 = alloca i32, align 4
  %4 = alloca i32, align 4
  %5 = alloca i8, align 1
  %6 = alloca i8, align 1
  %7 = alloca i32, align 4
  %8 = alloca [21 x i8], align 16
  %9 = bitcast i32* %1 to i8*
  call void @llvm.lifetime.start.p0i8(i64 4, i8* nonnull %9) #5
  %10 = getelementptr inbounds [21 x i8], [21 x i8]* %2, i64 0, i64 0
  call void @llvm.lifetime.start.p0i8(i64 21, i8* nonnull %10) #5
  %11 = bitcast i32* %3 to i8*
  call void @llvm.lifetime.start.p0i8(i64 4, i8* nonnull %11) #5
  %12 = bitcast i32* %4 to i8*
  call void @llvm.lifetime.start.p0i8(i64 4, i8* nonnull %12) #5
  call void @llvm.lifetime.start.p0i8(i64 1, i8* nonnull %5) #5
  call void @llvm.lifetime.start.p0i8(i64 1, i8* nonnull %6) #5
  %13 = bitcast i32* %7 to i8*
  call void @llvm.lifetime.start.p0i8(i64 4, i8* nonnull %13) #5
  %14 = call i32 (i8*, ...) @__isoc99_scanf(i8* getelementptr inbounds ([3 x i8], [3 x i8]* @.str, i64 0, i64 0), i32* nonnull %1)
  %15 = getelementptr inbounds [21 x i8], [21 x i8]* %8, i64 0, i64 0
  call void @llvm.lifetime.start.p0i8(i64 21, i8* nonnull %15) #5
  %16 = load i32, i32* %1, align 4, !tbaa !5
  %17 = icmp sgt i32 %16, 0
  br i1 %17, label %22, label %18

18:                                               ; preds = %55, %0
  %19 = phi i32 [ -1, %0 ], [ %56, %55 ]
  %20 = phi i32 [ 0, %0 ], [ %57, %55 ]
  %21 = call i32 (i8*, ...) @printf(i8* nonnull dereferenceable(1) getelementptr inbounds ([9 x i8], [9 x i8]* @.str.2, i64 0, i64 0), i8* nonnull %15, i32 %19, i32 %20)
  call void @llvm.lifetime.end.p0i8(i64 21, i8* nonnull %15) #5
  call void @llvm.lifetime.end.p0i8(i64 4, i8* nonnull %13) #5
  call void @llvm.lifetime.end.p0i8(i64 1, i8* nonnull %6) #5
  call void @llvm.lifetime.end.p0i8(i64 1, i8* nonnull %5) #5
  call void @llvm.lifetime.end.p0i8(i64 4, i8* nonnull %12) #5
  call void @llvm.lifetime.end.p0i8(i64 4, i8* nonnull %11) #5
  call void @llvm.lifetime.end.p0i8(i64 21, i8* nonnull %10) #5
  call void @llvm.lifetime.end.p0i8(i64 4, i8* nonnull %9) #5
  ret i32 0

22:                                               ; preds = %0, %55
  %23 = phi i32 [ %58, %55 ], [ 0, %0 ]
  %24 = phi i32 [ %57, %55 ], [ 0, %0 ]
  %25 = phi i32 [ %56, %55 ], [ -1, %0 ]
  %26 = call i32 (i8*, ...) @__isoc99_scanf(i8* getelementptr inbounds ([18 x i8], [18 x i8]* @.str.1, i64 0, i64 0), i8* nonnull %10, i32* nonnull %3, i32* nonnull %4, i8* nonnull %5, i8* nonnull %6, i32* nonnull %7)
  %27 = load i32, i32* %3, align 4, !tbaa !5
  %28 = load i32, i32* %4, align 4, !tbaa !5
  %29 = load i8, i8* %5, align 1, !tbaa !9
  %30 = load i8, i8* %6, align 1, !tbaa !9
  %31 = load i32, i32* %7, align 4, !tbaa !5
  %32 = icmp sgt i32 %27, 80
  %33 = icmp sgt i32 %31, 0
  %34 = select i1 %32, i1 %33, i1 false
  %35 = select i1 %34, i32 8000, i32 0
  %36 = icmp sgt i32 %27, 85
  %37 = icmp sgt i32 %28, 80
  %38 = select i1 %36, i1 %37, i1 false
  %39 = add nuw nsw i32 %35, 4000
  %40 = select i1 %38, i32 %39, i32 %35
  %41 = icmp sgt i32 %27, 90
  %42 = add nuw nsw i32 %40, 2000
  %43 = select i1 %41, i32 %42, i32 %40
  %44 = icmp eq i8 %30, 89
  %45 = select i1 %36, i1 %44, i1 false
  %46 = add nuw nsw i32 %43, 1000
  %47 = select i1 %45, i32 %46, i32 %43
  %48 = icmp eq i8 %29, 89
  %49 = select i1 %37, i1 %48, i1 false
  %50 = add nuw nsw i32 %47, 850
  %51 = select i1 %49, i32 %50, i32 %47
  %52 = icmp sgt i32 %51, %25
  br i1 %52, label %53, label %55

53:                                               ; preds = %22
  %54 = call i8* @strcpy(i8* noundef nonnull %15, i8* noundef nonnull %10) #5
  br label %55

55:                                               ; preds = %53, %22
  %56 = phi i32 [ %51, %53 ], [ %25, %22 ]
  %57 = add nsw i32 %51, %24
  %58 = add nuw nsw i32 %23, 1
  %59 = load i32, i32* %1, align 4, !tbaa !5
  %60 = icmp slt i32 %58, %59
  br i1 %60, label %22, label %18, !llvm.loop !10
}

; Function Attrs: nofree nounwind
declare noundef i32 @__isoc99_scanf(i8* nocapture noundef readonly, ...) local_unnamed_addr #3

; Function Attrs: argmemonly mustprogress nofree nounwind willreturn
declare i8* @strcpy(i8* noalias returned writeonly, i8* noalias nocapture readonly) local_unnamed_addr #4

; Function Attrs: nofree nounwind
declare noundef i32 @printf(i8* nocapture noundef readonly, ...) local_unnamed_addr #3


!llvm.module.flags = !{!0, !1, !2, !3}
!llvm.ident = !{!4}

!0 = !{i32 1, !"wchar_size", i32 4}
!1 = !{i32 7, !"PIC Level", i32 2}
!2 = !{i32 7, !"PIE Level", i32 2}
!3 = !{i32 7, !"uwtable", i32 1}
!4 = !{!"clang version 13.0.0"}
!5 = !{!6, !6, i64 0}
!6 = !{!"int", !7, i64 0}
!7 = !{!"omnipotent char", !8, i64 0}
!8 = !{!"Simple C/C++ TBAA"}
!9 = !{!7, !7, i64 0}
!10 = distinct !{!10, !11}
!11 = !{!"llvm.loop.mustprogress"}
